target datalayout = "e-m:e-p270:32:32-p271:32:32-p272:64:64-i64:64-i128:128-f80:128-n8:16:32:64-S128"
target triple = "x86_64-pc-linux-gnu"

%struct.sockaddr = type { i16, [14 x i8] }

; Function Attrs: nounwind uwtable
define i32 @BIO_ADDR_sockaddr_size(ptr noundef %0) #0 {
  %2 = alloca i32, align 4
  %3 = alloca ptr, align 8
  store ptr %0, ptr %3, align 8, !tbaa !3
  %4 = load ptr, ptr %3, align 8, !tbaa !3
  %5 = getelementptr inbounds nuw %struct.sockaddr, ptr %4, i32 0, i32 0
  %6 = load i16, ptr %5, align 4, !tbaa !8
  %7 = zext i16 %6 to i32
  %8 = icmp eq i32 %7, 2
  br i1 %8, label %9, label %10

9:                                                ; preds = %1
  store i32 16, ptr %2, align 4
  br label %25

10:                                               ; preds = %1
  %11 = load ptr, ptr %3, align 8, !tbaa !3
  %12 = getelementptr inbounds nuw %struct.sockaddr, ptr %11, i32 0, i32 0
  %13 = load i16, ptr %12, align 4, !tbaa !8
  %14 = zext i16 %13 to i32
  %15 = icmp eq i32 %14, 10
  br i1 %15, label %16, label %17

16:                                               ; preds = %10
  store i32 28, ptr %2, align 4
  br label %25

17:                                               ; preds = %10
  %18 = load ptr, ptr %3, align 8, !tbaa !3
  %19 = getelementptr inbounds nuw %struct.sockaddr, ptr %18, i32 0, i32 0
  %20 = load i16, ptr %19, align 4, !tbaa !8
  %21 = zext i16 %20 to i32
  %22 = icmp eq i32 %21, 1
  br i1 %22, label %23, label %24

23:                                               ; preds = %17
  store i32 110, ptr %2, align 4
  br label %25

24:                                               ; preds = %17
  store i32 112, ptr %2, align 4
  br label %25

25:                                               ; preds = %24, %23, %16, %9
  %26 = load i32, ptr %2, align 4
  ret i32 %26
}