; Function Attrs: mustprogress nofree norecurse nosync nounwind willreturn memory(argmem: read) uwtable
define range(i32 16, 113) i32 @BIO_ADDR_sockaddr_size(ptr noundef readonly captures(none) %0) local_unnamed_addr #9 {
  %2 = load i16, ptr %0, align 4, !tbaa !3
  switch i16 %2, label %5 [
    i16 2, label %6
    i16 10, label %3
    i16 1, label %4
  ]

3:                                                ; preds = %1
  br label %6

4:                                                ; preds = %1
  br label %6

5:                                                ; preds = %1
  br label %6

6:                                                ; preds = %1, %5, %4, %3
  %.0 = phi i32 [ 28, %3 ], [ 110, %4 ], [ 112, %5 ], [ 16, %1 ]
  ret i32 %.0
}